target datalayout = "e-m:e-p270:32:32-p271:32:32-p272:64:64-i64:64-i128:128-f80:128-n8:16:32:64-S128"
target triple = "x86_64-pc-linux-gnu"

%struct.BTDedupStateData = type { i8, i32, i64, ptr, i16, i64, ptr, i32, i32, i64, i32, [408 x %struct.BTDedupInterval] }
%struct.BTDedupInterval = type { i16, i16 }
%struct.IndexTupleData = type { %struct.ItemPointerData, i16 }
%struct.ItemPointerData = type { %struct.BlockIdData, i16 }
%struct.BlockIdData = type { i16, i16 }

; Function Attrs: inlinehint nounwind uwtable
define internal i32 @BlockIdGetBlockNumber(ptr noundef %0) #2 {
  %2 = alloca ptr, align 8
  store ptr %0, ptr %2, align 8
  %3 = load ptr, ptr %2, align 8
  %4 = getelementptr inbounds nuw %struct.BlockIdData, ptr %3, i32 0, i32 0
  %5 = load i16, ptr %4, align 2
  %6 = zext i16 %5 to i32
  %7 = shl i32 %6, 16
  %8 = load ptr, ptr %2, align 8
  %9 = getelementptr inbounds nuw %struct.BlockIdData, ptr %8, i32 0, i32 1
  %10 = load i16, ptr %9, align 2
  %11 = zext i16 %10 to i32
  %12 = or i32 %7, %11
  ret i32 %12
}

; Function Attrs: inlinehint nounwind uwtable
define internal i32 @ItemPointerGetBlockNumberNoCheck(ptr noundef %0) #2 {
  %2 = alloca ptr, align 8
  store ptr %0, ptr %2, align 8
  %3 = load ptr, ptr %2, align 8
  %4 = getelementptr inbounds nuw %struct.ItemPointerData, ptr %3, i32 0, i32 0
  %5 = call i32 @BlockIdGetBlockNumber(ptr noundef %4)
  ret i32 %5
}

; Function Attrs: inlinehint nounwind uwtable
define internal i32 @BTreeTupleGetPostingOffset(ptr noundef %0) #2 {
  %2 = alloca ptr, align 8
  store ptr %0, ptr %2, align 8
  %3 = load ptr, ptr %2, align 8
  %4 = getelementptr inbounds nuw %struct.IndexTupleData, ptr %3, i32 0, i32 0
  %5 = call i32 @ItemPointerGetBlockNumberNoCheck(ptr noundef %4)
  ret i32 %5
}

; Function Attrs: inlinehint nounwind uwtable
define internal zeroext i16 @ItemPointerGetOffsetNumberNoCheck(ptr noundef %0) #2 {
  %2 = alloca ptr, align 8
  store ptr %0, ptr %2, align 8
  %3 = load ptr, ptr %2, align 8
  %4 = getelementptr inbounds nuw %struct.ItemPointerData, ptr %3, i32 0, i32 1
  %5 = load i16, ptr %4, align 2
  ret i16 %5
}

; Function Attrs: inlinehint nounwind uwtable
define internal i64 @IndexTupleSize(ptr noundef %0) #2 {
  %2 = alloca ptr, align 8
  store ptr %0, ptr %2, align 8
  %3 = load ptr, ptr %2, align 8
  %4 = getelementptr inbounds nuw %struct.IndexTupleData, ptr %3, i32 0, i32 1
  %5 = load i16, ptr %4, align 2
  %6 = zext i16 %5 to i32
  %7 = and i32 %6, 8191
  %8 = sext i32 %7 to i64
  ret i64 %8
}

; Function Attrs: inlinehint nounwind uwtable
define internal ptr @BTreeTupleGetPosting(ptr noundef %0) #2 {
  %2 = alloca ptr, align 8
  store ptr %0, ptr %2, align 8
  %3 = load ptr, ptr %2, align 8
  %4 = load ptr, ptr %2, align 8
  %5 = call i32 @BTreeTupleGetPostingOffset(ptr noundef %4)
  %6 = zext i32 %5 to i64
  %7 = getelementptr inbounds nuw i8, ptr %3, i64 %6
  ret ptr %7
}

; Function Attrs: inlinehint nounwind uwtable
define internal zeroext i16 @BTreeTupleGetNPosting(ptr noundef %0) #2 {
  %2 = alloca ptr, align 8
  %3 = alloca i16, align 2
  store ptr %0, ptr %2, align 8
  call void @llvm.lifetime.start.p0(i64 2, ptr %3) #6
  %4 = load ptr, ptr %2, align 8
  %5 = getelementptr inbounds nuw %struct.IndexTupleData, ptr %4, i32 0, i32 0
  %6 = call zeroext i16 @ItemPointerGetOffsetNumberNoCheck(ptr noundef %5)
  store i16 %6, ptr %3, align 2
  %7 = load i16, ptr %3, align 2
  %8 = zext i16 %7 to i32
  %9 = and i32 %8, 4095
  %10 = trunc i32 %9 to i16
  call void @llvm.lifetime.end.p0(i64 2, ptr %3) #6
  ret i16 %10
}

; Function Attrs: inlinehint nounwind uwtable
define internal zeroext i1 @BTreeTupleIsPosting(ptr noundef %0) #2 {
  %2 = alloca i1, align 1
  %3 = alloca ptr, align 8
  store ptr %0, ptr %3, align 8
  %4 = load ptr, ptr %3, align 8
  %5 = getelementptr inbounds nuw %struct.IndexTupleData, ptr %4, i32 0, i32 1
  %6 = load i16, ptr %5, align 2
  %7 = zext i16 %6 to i32
  %8 = and i32 %7, 8192
  %9 = icmp eq i32 %8, 0
  br i1 %9, label %10, label %11

10:                                               ; preds = %1
  store i1 false, ptr %2, align 1
  br label %20

11:                                               ; preds = %1
  %12 = load ptr, ptr %3, align 8
  %13 = getelementptr inbounds nuw %struct.IndexTupleData, ptr %12, i32 0, i32 0
  %14 = call zeroext i16 @ItemPointerGetOffsetNumberNoCheck(ptr noundef %13)
  %15 = zext i16 %14 to i32
  %16 = and i32 %15, 8192
  %17 = icmp eq i32 %16, 0
  br i1 %17, label %18, label %19

18:                                               ; preds = %11
  store i1 false, ptr %2, align 1
  br label %20

19:                                               ; preds = %11
  store i1 true, ptr %2, align 1
  br label %20

20:                                               ; preds = %19, %18, %10
  %21 = load i1, ptr %2, align 1
  ret i1 %21
}

; Function Attrs: nounwind uwtable
define dso_local zeroext i1 @_bt_dedup_save_htid(ptr noundef %0, ptr noundef %1) #0 {
  %3 = alloca i1, align 1
  %4 = alloca ptr, align 8
  %5 = alloca ptr, align 8
  %6 = alloca i32, align 4
  %7 = alloca ptr, align 8
  %8 = alloca i64, align 8
  %9 = alloca i32, align 4
  store ptr %0, ptr %4, align 8
  store ptr %1, ptr %5, align 8
  call void @llvm.lifetime.start.p0(i64 4, ptr %6) #6
  call void @llvm.lifetime.start.p0(i64 8, ptr %7) #6
  call void @llvm.lifetime.start.p0(i64 8, ptr %8) #6
  %10 = load ptr, ptr %5, align 8
  %11 = call zeroext i1 @BTreeTupleIsPosting(ptr noundef %10)
  br i1 %11, label %15, label %12

12:                                               ; preds = %2
  store i32 1, ptr %6, align 4
  %13 = load ptr, ptr %5, align 8
  %14 = getelementptr inbounds nuw %struct.IndexTupleData, ptr %13, i32 0, i32 0
  store ptr %14, ptr %7, align 8
  br label %21

15:                                               ; preds = %2
  %16 = load ptr, ptr %5, align 8
  %17 = call zeroext i16 @BTreeTupleGetNPosting(ptr noundef %16)
  %18 = zext i16 %17 to i32
  store i32 %18, ptr %6, align 4
  %19 = load ptr, ptr %5, align 8
  %20 = call ptr @BTreeTupleGetPosting(ptr noundef %19)
  store ptr %20, ptr %7, align 8
  br label %21

21:                                               ; preds = %15, %12
  %22 = load ptr, ptr %4, align 8
  %23 = getelementptr inbounds nuw %struct.BTDedupStateData, ptr %22, i32 0, i32 5
  %24 = load i64, ptr %23, align 8
  %25 = load ptr, ptr %4, align 8
  %26 = getelementptr inbounds nuw %struct.BTDedupStateData, ptr %25, i32 0, i32 7
  %27 = load i32, ptr %26, align 8
  %28 = load i32, ptr %6, align 4
  %29 = add i32 %27, %28
  %30 = sext i32 %29 to i64
  %31 = mul i64 %30, 6
  %32 = add i64 %24, %31
  %33 = add i64 %32, 7
  %34 = and i64 %33, -8
  store i64 %34, ptr %8, align 8
  %35 = load i64, ptr %8, align 8
  %36 = load ptr, ptr %4, align 8
  %37 = getelementptr inbounds nuw %struct.BTDedupStateData, ptr %36, i32 0, i32 2
  %38 = load i64, ptr %37, align 8
  %39 = icmp ugt i64 %35, %38
  br i1 %39, label %40, label %51

40:                                               ; preds = %21
  %41 = load ptr, ptr %4, align 8
  %42 = getelementptr inbounds nuw %struct.BTDedupStateData, ptr %41, i32 0, i32 7
  %43 = load i32, ptr %42, align 8
  %44 = icmp sgt i32 %43, 50
  br i1 %44, label %45, label %50

45:                                               ; preds = %40
  %46 = load ptr, ptr %4, align 8
  %47 = getelementptr inbounds nuw %struct.BTDedupStateData, ptr %46, i32 0, i32 1
  %48 = load i32, ptr %47, align 4
  %49 = add i32 %48, 1
  store i32 %49, ptr %47, align 4
  br label %50

50:                                               ; preds = %45, %40
  store i1 false, ptr %3, align 1
  store i32 1, ptr %9, align 4
  br label %82

51:                                               ; preds = %21
  %52 = load ptr, ptr %4, align 8
  %53 = getelementptr inbounds nuw %struct.BTDedupStateData, ptr %52, i32 0, i32 8
  %54 = load i32, ptr %53, align 4
  %55 = add i32 %54, 1
  store i32 %55, ptr %53, align 4
  %56 = load ptr, ptr %4, align 8
  %57 = getelementptr inbounds nuw %struct.BTDedupStateData, ptr %56, i32 0, i32 6
  %58 = load ptr, ptr %57, align 8
  %59 = load ptr, ptr %4, align 8
  %60 = getelementptr inbounds nuw %struct.BTDedupStateData, ptr %59, i32 0, i32 7
  %61 = load i32, ptr %60, align 8
  %62 = sext i32 %61 to i64
  %63 = getelementptr inbounds %struct.ItemPointerData, ptr %58, i64 %62
  %64 = load ptr, ptr %7, align 8
  %65 = load i32, ptr %6, align 4
  %66 = sext i32 %65 to i64
  %67 = mul i64 6, %66
  call void @llvm.memcpy.p0.p0.i64(ptr align 2 %63, ptr align 2 %64, i64 %67, i1 false)
  %68 = load i32, ptr %6, align 4
  %69 = load ptr, ptr %4, align 8
  %70 = getelementptr inbounds nuw %struct.BTDedupStateData, ptr %69, i32 0, i32 7
  %71 = load i32, ptr %70, align 8
  %72 = add i32 %71, %68
  store i32 %72, ptr %70, align 8
  %73 = load ptr, ptr %5, align 8
  %74 = call i64 @IndexTupleSize(ptr noundef %73)
  %75 = add i64 %74, 7
  %76 = and i64 %75, -8
  %77 = add i64 %76, 4
  %78 = load ptr, ptr %4, align 8
  %79 = getelementptr inbounds nuw %struct.BTDedupStateData, ptr %78, i32 0, i32 9
  %80 = load i64, ptr %79, align 8
  %81 = add i64 %80, %77
  store i64 %81, ptr %79, align 8
  store i1 true, ptr %3, align 1
  store i32 1, ptr %9, align 4
  br label %82

82:                                               ; preds = %51, %50
  call void @llvm.lifetime.end.p0(i64 8, ptr %8) #6
  call void @llvm.lifetime.end.p0(i64 8, ptr %7) #6
  call void @llvm.lifetime.end.p0(i64 4, ptr %6) #6
  %83 = load i1, ptr %3, align 1
  ret i1 %83
}