; Function Attrs: mustprogress nofree norecurse nosync nounwind willreturn memory(readwrite, inaccessiblemem: none) uwtable
define dso_local noundef zeroext i1 @_bt_dedup_save_htid(ptr noundef captures(none) %0, ptr noundef readonly captures(none) %1) local_unnamed_addr #4 {
  %3 = getelementptr inbounds nuw i8, ptr %1, i64 6
  %4 = load i16, ptr %3, align 2
  %5 = and i16 %4, 8192
  %6 = icmp eq i16 %5, 0
  br i1 %6, label %BTreeTupleIsPosting.exit.thread, label %BTreeTupleIsPosting.exit

BTreeTupleIsPosting.exit:                         ; preds = %2
  %7 = getelementptr i8, ptr %1, i64 4
  %.val.i = load i16, ptr %7, align 2
  %8 = and i16 %.val.i, 8192
  %.not = icmp eq i16 %8, 0
  br i1 %.not, label %BTreeTupleIsPosting.exit.thread, label %9

9:                                                ; preds = %BTreeTupleIsPosting.exit
  %10 = and i16 %.val.i, 4095
  %11 = zext nneg i16 %10 to i32
  %.val.i23 = load i16, ptr %1, align 2
  %12 = getelementptr i8, ptr %1, i64 2
  %.val2.i = load i16, ptr %12, align 2
  %13 = zext i16 %.val.i23 to i64
  %14 = shl nuw nsw i64 %13, 16
  %15 = zext i16 %.val2.i to i64
  %16 = or disjoint i64 %14, %15
  %17 = getelementptr inbounds nuw i8, ptr %1, i64 %16
  br label %BTreeTupleIsPosting.exit.thread

BTreeTupleIsPosting.exit.thread:                  ; preds = %2, %BTreeTupleIsPosting.exit, %9
  %.021 = phi i32 [ %11, %9 ], [ 1, %BTreeTupleIsPosting.exit ], [ 1, %2 ]
  %.020 = phi ptr [ %17, %9 ], [ %1, %BTreeTupleIsPosting.exit ], [ %1, %2 ]
  %18 = getelementptr inbounds nuw i8, ptr %0, i64 32
  %19 = load i64, ptr %18, align 8
  %20 = getelementptr inbounds nuw i8, ptr %0, i64 48
  %21 = load i32, ptr %20, align 8
  %22 = add i32 %21, %.021
  %23 = sext i32 %22 to i64
  %24 = mul nsw i64 %23, 6
  %25 = add i64 %19, 7
  %26 = add i64 %25, %24
  %27 = and i64 %26, -8
  %28 = getelementptr inbounds nuw i8, ptr %0, i64 8
  %29 = load i64, ptr %28, align 8
  %30 = icmp ule i64 %27, %29
  br i1 %30, label %37, label %31

31:                                               ; preds = %BTreeTupleIsPosting.exit.thread
  %32 = icmp sgt i32 %21, 50
  br i1 %32, label %33, label %55

33:                                               ; preds = %31
  %34 = getelementptr inbounds nuw i8, ptr %0, i64 4
  %35 = load i32, ptr %34, align 4
  %36 = add i32 %35, 1
  store i32 %36, ptr %34, align 4
  br label %55

37:                                               ; preds = %BTreeTupleIsPosting.exit.thread
  %38 = getelementptr inbounds nuw i8, ptr %0, i64 52
  %39 = load i32, ptr %38, align 4
  %40 = add i32 %39, 1
  store i32 %40, ptr %38, align 4
  %41 = getelementptr inbounds nuw i8, ptr %0, i64 40
  %42 = load ptr, ptr %41, align 8
  %43 = sext i32 %21 to i64
  %44 = getelementptr inbounds %struct.ItemPointerData, ptr %42, i64 %43
  %narrow = mul nuw nsw i32 %.021, 6
  %45 = zext nneg i32 %narrow to i64
  tail call void @llvm.memcpy.p0.p0.i64(ptr align 2 %44, ptr nonnull align 2 %.020, i64 %45, i1 false)
  %46 = load i32, ptr %20, align 8
  %47 = add i32 %46, %.021
  store i32 %47, ptr %20, align 8
  %.val = load i16, ptr %3, align 2
  %48 = and i16 %.val, 8191
  %narrow25 = add nuw nsw i16 %48, 7
  %49 = and i16 %narrow25, 16376
  %50 = or disjoint i16 %49, 4
  %51 = zext nneg i16 %50 to i64
  %52 = getelementptr inbounds nuw i8, ptr %0, i64 56
  %53 = load i64, ptr %52, align 8
  %54 = add i64 %53, %51
  store i64 %54, ptr %52, align 8
  br label %55

55:                                               ; preds = %31, %33, %37
  ret i1 %30
}